; Function Attrs: mustprogress nounwind uwtable
define dso_local noundef ptr @_ZNK4node5http211Http2StreamdeEv(ptr nocapture noundef nonnull readonly align 8 dereferenceable(368) %this) local_unnamed_addr #4 align 2 {
entry:
  %session_.i = getelementptr inbounds i8, ptr %this, i64 184
  %0 = load ptr, ptr %session_.i, align 8, !nonnull !13, !noundef !13
  %self.i.i.i.i = getelementptr inbounds i8, ptr %0, i64 16
  %1 = load ptr, ptr %self.i.i.i.i, align 8
  %session_.i.i = getelementptr inbounds i8, ptr %1, i64 168
  %2 = load ptr, ptr %session_.i.i, align 8
  %id_.i = getelementptr inbounds i8, ptr %this, i64 192
  %3 = load i32, ptr %id_.i, align 8
  %call3.i = tail call noundef ptr @nghttp2_session_find_stream(ptr noundef %2, i32 noundef %3) #29
  ret ptr %call3.i
}